target datalayout = "e-m:e-p270:32:32-p271:32:32-p272:64:64-i64:64-i128:128-f80:128-n8:16:32:64-S128"
target triple = "x86_64-unknown-linux-gnu"

%"class.std::__shared_count" = type { ptr }
%"class.std::shared_ptr.8" = type { %"class.std::__shared_ptr.9" }
%"class.std::__shared_ptr.9" = type { ptr, %"class.std::__shared_count" }
%"class.std::_Sp_counted_base" = type { ptr, i32, i32 }
%"class.OpenColorIO_v2_4dev::(anonymous namespace)::GradingRGBCurveOpCPU" = type { %"class.OpenColorIO_v2_4dev::OpCPU", %"class.std::shared_ptr.8" }
%"class.OpenColorIO_v2_4dev::OpCPU" = type { ptr }

@__libc_single_threaded = external global i8, align 1

; Function Attrs: mustprogress nounwind uwtable
define linkonce_odr hidden void @_ZNSt16_Sp_counted_baseILN9__gnu_cxx12_Lock_policyE2EE19_M_release_last_useEv(ptr noundef nonnull align 8 dereferenceable(16) %this) #5 comdat align 2 personality ptr @__gxx_personality_v0 {
entry:
  %__mem.addr.i6 = alloca ptr, align 8
  %__val.addr.i7 = alloca i32, align 4
  %.atomictmp.i = alloca i32, align 4
  %atomic-temp.i = alloca i32, align 4
  %__mem.addr.i4 = alloca ptr, align 8
  %__val.addr.i5 = alloca i32, align 4
  %__result.i = alloca i32, align 4
  %retval.i = alloca i32, align 4
  %__mem.addr.i = alloca ptr, align 8
  %__val.addr.i = alloca i32, align 4
  %this.addr = alloca ptr, align 8
  store ptr %this, ptr %this.addr, align 8
  %this1 = load ptr, ptr %this.addr, align 8
  %vtable = load ptr, ptr %this1, align 8
  %vfn = getelementptr inbounds ptr, ptr %vtable, i64 2
  %0 = load ptr, ptr %vfn, align 8
  call void %0(ptr noundef nonnull align 8 dereferenceable(16) %this1) #3
  %_M_weak_count = getelementptr inbounds %"class.std::_Sp_counted_base", ptr %this1, i32 0, i32 2
  store ptr %_M_weak_count, ptr %__mem.addr.i, align 8
  store i32 -1, ptr %__val.addr.i, align 4
  %1 = load i8, ptr @__libc_single_threaded, align 1
  %tobool.i = icmp ne i8 %1, 0
  br i1 %tobool.i, label %if.then.i, label %if.else.i

if.then.i:                                        ; preds = %entry
  %2 = load ptr, ptr %__mem.addr.i, align 8
  %3 = load i32, ptr %__val.addr.i, align 4
  store ptr %2, ptr %__mem.addr.i4, align 8
  store i32 %3, ptr %__val.addr.i5, align 4
  %4 = load ptr, ptr %__mem.addr.i4, align 8
  %5 = load i32, ptr %4, align 4
  store i32 %5, ptr %__result.i, align 4
  %6 = load i32, ptr %__val.addr.i5, align 4
  %7 = load ptr, ptr %__mem.addr.i4, align 8
  %8 = load i32, ptr %7, align 4
  %add.i = add nsw i32 %8, %6
  store i32 %add.i, ptr %7, align 4
  %9 = load i32, ptr %__result.i, align 4
  store i32 %9, ptr %retval.i, align 4
  br label %_ZN9__gnu_cxx27__exchange_and_add_dispatchEPii.exit

if.else.i:                                        ; preds = %entry
  %10 = load ptr, ptr %__mem.addr.i, align 8
  %11 = load i32, ptr %__val.addr.i, align 4
  store ptr %10, ptr %__mem.addr.i6, align 8
  store i32 %11, ptr %__val.addr.i7, align 4
  %12 = load ptr, ptr %__mem.addr.i6, align 8
  %13 = load i32, ptr %__val.addr.i7, align 4
  store i32 %13, ptr %.atomictmp.i, align 4
  %14 = load i32, ptr %.atomictmp.i, align 4
  %15 = atomicrmw volatile add ptr %12, i32 %14 acq_rel, align 4
  store i32 %15, ptr %atomic-temp.i, align 4
  %16 = load i32, ptr %atomic-temp.i, align 4
  store i32 %16, ptr %retval.i, align 4
  br label %_ZN9__gnu_cxx27__exchange_and_add_dispatchEPii.exit

_ZN9__gnu_cxx27__exchange_and_add_dispatchEPii.exit: ; preds = %if.else.i, %if.then.i
  %17 = load i32, ptr %retval.i, align 4
  br label %invoke.cont

invoke.cont:                                      ; preds = %_ZN9__gnu_cxx27__exchange_and_add_dispatchEPii.exit
  %cmp = icmp eq i32 %17, 1
  br i1 %cmp, label %if.then, label %if.end

if.then:                                          ; preds = %invoke.cont
  %vtable2 = load ptr, ptr %this1, align 8
  %vfn3 = getelementptr inbounds ptr, ptr %vtable2, i64 3
  %18 = load ptr, ptr %vfn3, align 8
  call void %18(ptr noundef nonnull align 8 dereferenceable(16) %this1) #3
  br label %if.end

if.end:                                           ; preds = %if.then, %invoke.cont
  ret void

terminate.lpad:                                   ; No predecessors!
  %19 = landingpad { ptr, i32 }
          catch ptr null
  %20 = extractvalue { ptr, i32 } %19, 0
  call void @__clang_call_terminate(ptr %20) #17
  unreachable
}

; Function Attrs: noreturn nounwind uwtable
define linkonce_odr hidden void @__clang_call_terminate(ptr noundef %0) #7 comdat {
  %2 = call ptr @__cxa_begin_catch(ptr %0) #3
  call void @_ZSt9terminatev() #17
  unreachable
}

; Function Attrs: mustprogress nounwind uwtable
define linkonce_odr hidden void @_ZNSt16_Sp_counted_baseILN9__gnu_cxx12_Lock_policyE2EE24_M_release_last_use_coldEv(ptr noundef nonnull align 8 dereferenceable(16) %this) #5 comdat align 2 {
entry:
  %this.addr = alloca ptr, align 8
  store ptr %this, ptr %this.addr, align 8
  %this1 = load ptr, ptr %this.addr, align 8
  call void @_ZNSt16_Sp_counted_baseILN9__gnu_cxx12_Lock_policyE2EE19_M_release_last_useEv(ptr noundef nonnull align 8 dereferenceable(16) %this1) #3
  ret void
}

; Function Attrs: mustprogress nounwind uwtable
define linkonce_odr hidden void @_ZNSt16_Sp_counted_baseILN9__gnu_cxx12_Lock_policyE2EE10_M_releaseEv(ptr noundef nonnull align 8 dereferenceable(16) %this) #5 comdat align 2 personality ptr @__gxx_personality_v0 {
entry:
  %__mem.addr.i11 = alloca ptr, align 8
  %__val.addr.i12 = alloca i32, align 4
  %.atomictmp.i = alloca i32, align 4
  %atomic-temp.i = alloca i32, align 4
  %__mem.addr.i9 = alloca ptr, align 8
  %__val.addr.i10 = alloca i32, align 4
  %__result.i = alloca i32, align 4
  %retval.i = alloca i32, align 4
  %__mem.addr.i = alloca ptr, align 8
  %__val.addr.i = alloca i32, align 4
  %this.addr = alloca ptr, align 8
  %__lock_free = alloca i8, align 1
  %__double_word = alloca i8, align 1
  %__aligned = alloca i8, align 1
  %__wordbits = alloca i32, align 4
  %__shiftbits = alloca i32, align 4
  %__unique_ref = alloca i64, align 8
  %__both_counts = alloca ptr, align 8
  %atomic-temp = alloca i64, align 8
  store ptr %this, ptr %this.addr, align 8
  %this1 = load ptr, ptr %this.addr, align 8
  store i8 1, ptr %__lock_free, align 1
  store i8 1, ptr %__double_word, align 1
  store i8 1, ptr %__aligned, align 1
  store i32 32, ptr %__wordbits, align 4
  store i32 32, ptr %__shiftbits, align 4
  store i64 4294967297, ptr %__unique_ref, align 8
  %_M_use_count = getelementptr inbounds %"class.std::_Sp_counted_base", ptr %this1, i32 0, i32 1
  store ptr %_M_use_count, ptr %__both_counts, align 8
  %0 = load ptr, ptr %__both_counts, align 8
  %1 = load atomic i64, ptr %0 acquire, align 8
  store i64 %1, ptr %atomic-temp, align 8
  %2 = load i64, ptr %atomic-temp, align 8
  %cmp = icmp eq i64 %2, 4294967297
  br i1 %cmp, label %if.then, label %if.end

if.then:                                          ; preds = %entry
  %_M_use_count2 = getelementptr inbounds %"class.std::_Sp_counted_base", ptr %this1, i32 0, i32 1
  store i32 0, ptr %_M_use_count2, align 8
  %_M_weak_count = getelementptr inbounds %"class.std::_Sp_counted_base", ptr %this1, i32 0, i32 2
  store i32 0, ptr %_M_weak_count, align 4
  %vtable = load ptr, ptr %this1, align 8
  %vfn = getelementptr inbounds ptr, ptr %vtable, i64 2
  %3 = load ptr, ptr %vfn, align 8
  call void %3(ptr noundef nonnull align 8 dereferenceable(16) %this1) #3
  %vtable3 = load ptr, ptr %this1, align 8
  %vfn4 = getelementptr inbounds ptr, ptr %vtable3, i64 3
  %4 = load ptr, ptr %vfn4, align 8
  call void %4(ptr noundef nonnull align 8 dereferenceable(16) %this1) #3
  br label %if.end8

if.end:                                           ; preds = %entry
  %_M_use_count5 = getelementptr inbounds %"class.std::_Sp_counted_base", ptr %this1, i32 0, i32 1
  store ptr %_M_use_count5, ptr %__mem.addr.i, align 8
  store i32 -1, ptr %__val.addr.i, align 4
  %5 = load i8, ptr @__libc_single_threaded, align 1
  %tobool.i = icmp ne i8 %5, 0
  br i1 %tobool.i, label %if.then.i, label %if.else.i

if.then.i:                                        ; preds = %if.end
  %6 = load ptr, ptr %__mem.addr.i, align 8
  %7 = load i32, ptr %__val.addr.i, align 4
  store ptr %6, ptr %__mem.addr.i9, align 8
  store i32 %7, ptr %__val.addr.i10, align 4
  %8 = load ptr, ptr %__mem.addr.i9, align 8
  %9 = load i32, ptr %8, align 4
  store i32 %9, ptr %__result.i, align 4
  %10 = load i32, ptr %__val.addr.i10, align 4
  %11 = load ptr, ptr %__mem.addr.i9, align 8
  %12 = load i32, ptr %11, align 4
  %add.i = add nsw i32 %12, %10
  store i32 %add.i, ptr %11, align 4
  %13 = load i32, ptr %__result.i, align 4
  store i32 %13, ptr %retval.i, align 4
  br label %_ZN9__gnu_cxx27__exchange_and_add_dispatchEPii.exit

if.else.i:                                        ; preds = %if.end
  %14 = load ptr, ptr %__mem.addr.i, align 8
  %15 = load i32, ptr %__val.addr.i, align 4
  store ptr %14, ptr %__mem.addr.i11, align 8
  store i32 %15, ptr %__val.addr.i12, align 4
  %16 = load ptr, ptr %__mem.addr.i11, align 8
  %17 = load i32, ptr %__val.addr.i12, align 4
  store i32 %17, ptr %.atomictmp.i, align 4
  %18 = load i32, ptr %.atomictmp.i, align 4
  %19 = atomicrmw volatile add ptr %16, i32 %18 acq_rel, align 4
  store i32 %19, ptr %atomic-temp.i, align 4
  %20 = load i32, ptr %atomic-temp.i, align 4
  store i32 %20, ptr %retval.i, align 4
  br label %_ZN9__gnu_cxx27__exchange_and_add_dispatchEPii.exit

_ZN9__gnu_cxx27__exchange_and_add_dispatchEPii.exit: ; preds = %if.else.i, %if.then.i
  %21 = load i32, ptr %retval.i, align 4
  br label %invoke.cont

invoke.cont:                                      ; preds = %_ZN9__gnu_cxx27__exchange_and_add_dispatchEPii.exit
  %cmp6 = icmp eq i32 %21, 1
  br i1 %cmp6, label %if.then7, label %if.end8

if.then7:                                         ; preds = %invoke.cont
  call void @_ZNSt16_Sp_counted_baseILN9__gnu_cxx12_Lock_policyE2EE24_M_release_last_use_coldEv(ptr noundef nonnull align 8 dereferenceable(16) %this1) #3
  br label %if.end8

if.end8:                                          ; preds = %if.then7, %invoke.cont, %if.then
  ret void

terminate.lpad:                                   ; No predecessors!
  %22 = landingpad { ptr, i32 }
          catch ptr null
  %23 = extractvalue { ptr, i32 } %22, 0
  call void @__clang_call_terminate(ptr %23) #17
  unreachable
}

; Function Attrs: mustprogress nounwind uwtable
define linkonce_odr hidden void @_ZNSt14__shared_countILN9__gnu_cxx12_Lock_policyE2EED2Ev(ptr noundef nonnull align 8 dereferenceable(8) %this) unnamed_addr #5 comdat align 2 {
entry:
  %this.addr = alloca ptr, align 8
  store ptr %this, ptr %this.addr, align 8
  %this1 = load ptr, ptr %this.addr, align 8
  %_M_pi = getelementptr inbounds %"class.std::__shared_count", ptr %this1, i32 0, i32 0
  %0 = load ptr, ptr %_M_pi, align 8
  %cmp = icmp ne ptr %0, null
  br i1 %cmp, label %if.then, label %if.end

if.then:                                          ; preds = %entry
  %_M_pi2 = getelementptr inbounds %"class.std::__shared_count", ptr %this1, i32 0, i32 0
  %1 = load ptr, ptr %_M_pi2, align 8
  call void @_ZNSt16_Sp_counted_baseILN9__gnu_cxx12_Lock_policyE2EE10_M_releaseEv(ptr noundef nonnull align 8 dereferenceable(16) %1) #3
  br label %if.end

if.end:                                           ; preds = %if.then, %entry
  ret void
}

; Function Attrs: mustprogress nounwind uwtable
define linkonce_odr hidden void @_ZNSt12__shared_ptrIN19OpenColorIO_v2_4dev34DynamicPropertyGradingRGBCurveImplELN9__gnu_cxx12_Lock_policyE2EED2Ev(ptr noundef nonnull align 8 dereferenceable(16) %this) unnamed_addr #5 comdat align 2 {
entry:
  %this.addr = alloca ptr, align 8
  store ptr %this, ptr %this.addr, align 8
  %this1 = load ptr, ptr %this.addr, align 8
  %_M_refcount = getelementptr inbounds %"class.std::__shared_ptr.9", ptr %this1, i32 0, i32 1
  call void @_ZNSt14__shared_countILN9__gnu_cxx12_Lock_policyE2EED2Ev(ptr noundef nonnull align 8 dereferenceable(8) %_M_refcount) #3
  ret void
}

; Function Attrs: mustprogress nounwind uwtable
define linkonce_odr hidden void @_ZN19OpenColorIO_v2_4dev5OpCPUD2Ev(ptr noundef nonnull align 8 dereferenceable(8) %this) unnamed_addr #5 comdat align 2 {
entry:
  %this.addr = alloca ptr, align 8
  store ptr %this, ptr %this.addr, align 8
  ret void
}

; Function Attrs: mustprogress nounwind uwtable
define linkonce_odr hidden void @_ZNSt10shared_ptrIN19OpenColorIO_v2_4dev34DynamicPropertyGradingRGBCurveImplEED2Ev(ptr noundef nonnull align 8 dereferenceable(16) %this) unnamed_addr #5 comdat align 2 {
entry:
  %this.addr = alloca ptr, align 8
  store ptr %this, ptr %this.addr, align 8
  %this1 = load ptr, ptr %this.addr, align 8
  call void @_ZNSt12__shared_ptrIN19OpenColorIO_v2_4dev34DynamicPropertyGradingRGBCurveImplELN9__gnu_cxx12_Lock_policyE2EED2Ev(ptr noundef nonnull align 8 dereferenceable(16) %this1) #3
  ret void
}

; Function Attrs: mustprogress nounwind uwtable
define internal void @_ZN19OpenColorIO_v2_4dev12_GLOBAL__N_120GradingRGBCurveOpCPUD2Ev(ptr noundef nonnull align 8 dereferenceable(24) %this) unnamed_addr #5 align 2 {
entry:
  %this.addr = alloca ptr, align 8
  store ptr %this, ptr %this.addr, align 8
  %this1 = load ptr, ptr %this.addr, align 8
  store ptr getelementptr inbounds ({ [8 x ptr] }, ptr @_ZTVN19OpenColorIO_v2_4dev12_GLOBAL__N_120GradingRGBCurveOpCPUE, i32 0, i32 0, i32 2), ptr %this1, align 8
  %m_grgbcurve = getelementptr inbounds %"class.OpenColorIO_v2_4dev::(anonymous namespace)::GradingRGBCurveOpCPU", ptr %this1, i32 0, i32 1
  call void @_ZNSt10shared_ptrIN19OpenColorIO_v2_4dev34DynamicPropertyGradingRGBCurveImplEED2Ev(ptr noundef nonnull align 8 dereferenceable(16) %m_grgbcurve) #3
  call void @_ZN19OpenColorIO_v2_4dev5OpCPUD2Ev(ptr noundef nonnull align 8 dereferenceable(8) %this1) #3
  ret void
}

; Function Attrs: mustprogress nounwind uwtable
define internal void @_ZN19OpenColorIO_v2_4dev12_GLOBAL__N_123GradingRGBCurveRevOpCPUD2Ev(ptr noundef nonnull align 8 dereferenceable(24) %this) unnamed_addr #5 align 2 {
entry:
  %this.addr = alloca ptr, align 8
  store ptr %this, ptr %this.addr, align 8
  %this1 = load ptr, ptr %this.addr, align 8
  call void @_ZN19OpenColorIO_v2_4dev12_GLOBAL__N_120GradingRGBCurveOpCPUD2Ev(ptr noundef nonnull align 8 dereferenceable(24) %this1) #3
  ret void
}

; Function Attrs: mustprogress nounwind uwtable
define internal void @_ZN19OpenColorIO_v2_4dev12_GLOBAL__N_129GradingRGBCurveLinearRevOpCPUD2Ev(ptr noundef nonnull align 8 dereferenceable(24) %this) unnamed_addr #5 align 2 {
entry:
  %this.addr = alloca ptr, align 8
  store ptr %this, ptr %this.addr, align 8
  %this1 = load ptr, ptr %this.addr, align 8
  call void @_ZN19OpenColorIO_v2_4dev12_GLOBAL__N_123GradingRGBCurveRevOpCPUD2Ev(ptr noundef nonnull align 8 dereferenceable(24) %this1) #3
  ret void
}